target datalayout = "e-m:e-p270:32:32-p271:32:32-p272:64:64-i64:64-i128:128-f80:128-n8:16:32:64-S128"
target triple = "x86_64-pc-linux-gnu"

%struct.H5C_class_t = type { i32, ptr, i32, i32, ptr, ptr, ptr, ptr, ptr, ptr, ptr, ptr, ptr, ptr }
%struct.H5FA_dblock_t = type { %struct.H5C_cache_entry_t, ptr, ptr, ptr, ptr, i64, i64, i64, i64, i64, i64, i64 }
%struct.H5C_cache_entry_t = type { ptr, i64, i64, ptr, i8, ptr, i8, i8, i8, i8, i32, i8, i8, i8, i8, i8, i32, ptr, i32, i32, i32, i32, i32, i8, i8, ptr, ptr, ptr, ptr, ptr, ptr, i8, i32, i8, i64, ptr, i64, i64, i32, i8, i32, i32, i8, ptr, ptr, ptr }
%struct.H5FA_hdr_t = type { %struct.H5C_cache_entry_t, %struct.H5FA_create_t, i64, %struct.H5FA_stat_t, i64, i64, i64, ptr, i64, i8, i64, i64, ptr, i8, ptr, ptr }
%struct.H5FA_create_t = type { ptr, i8, i8, i64 }
%struct.H5FA_stat_t = type { i64, i64, i64 }
%struct.H5FA_dblock_cache_ud_t = type { ptr, i64 }

@H5FA_init_g = external global i8, align 1
@H5_libterm_g = external global i8, align 1
@.str.2 = private unnamed_addr constant [104 x i8] c"generated/home/dtcxzyw/WorkSpace/Projects/compilers/llvm-opt-benchmark/bench/hdf5/hdf5/src/H5FAdblock.c\00", align 1
@H5E_FARRAY_g = external global i64, align 8
@H5E_CANTSET_g = external global i64, align 8
@H5AC_FARRAY_DBLOCK = external constant [1 x %struct.H5C_class_t], align 16
@.str.11 = private unnamed_addr constant [56 x i8] c"unable to add fixed array entry as child of array proxy\00", align 1
@__func__.H5FA__dblock_protect = private unnamed_addr constant [21 x i8] c"H5FA__dblock_protect\00", align 1
@H5E_CANTPROTECT_g = external global i64, align 8
@.str.14 = private unnamed_addr constant [57 x i8] c"unable to protect fixed array data block, address = %llu\00", align 1
@H5E_CANTUNPROTECT_g = external global i64, align 8
@.str.15 = private unnamed_addr constant [59 x i8] c"unable to unprotect fixed array data block, address = %llu\00", align 1

; Function Attrs: nounwind uwtable
define ptr @H5FA__dblock_protect(ptr noundef %0, i64 noundef %1, i32 noundef %2) #0 {
  %4 = alloca ptr, align 8
  %5 = alloca i64, align 8
  %6 = alloca i32, align 4
  %7 = alloca ptr, align 8
  %8 = alloca %struct.H5FA_dblock_cache_ud_t, align 8
  %9 = alloca ptr, align 8
  %10 = alloca i8, align 1
  store ptr %0, ptr %4, align 8, !tbaa !3
  store i64 %1, ptr %5, align 8, !tbaa !14
  store i32 %2, ptr %6, align 4, !tbaa !46
  call void @llvm.lifetime.start.p0(i64 8, ptr %7) #4
  store ptr null, ptr %7, align 8, !tbaa !8
  call void @llvm.lifetime.start.p0(i64 16, ptr %8) #4
  call void @llvm.lifetime.start.p0(i64 8, ptr %9) #4
  store ptr null, ptr %9, align 8, !tbaa !8
  call void @llvm.lifetime.start.p0(i64 1, ptr %10) #4
  store i8 0, ptr %10, align 1, !tbaa !10
  %11 = load i8, ptr @H5FA_init_g, align 1, !tbaa !10, !range !12, !noundef !13
  %12 = trunc i8 %11 to i1
  br i1 %12, label %17, label %13

13:                                               ; preds = %3
  %14 = load i8, ptr @H5_libterm_g, align 1, !tbaa !10, !range !12, !noundef !13
  %15 = trunc i8 %14 to i1
  %16 = xor i1 %15, true
  br label %17

17:                                               ; preds = %13, %3
  %18 = phi i1 [ true, %3 ], [ %16, %13 ]
  %19 = xor i1 %18, true
  %20 = xor i1 %19, true
  %21 = zext i1 %20 to i32
  %22 = sext i32 %21 to i64
  %23 = call i64 @llvm.expect.i64(i64 %22, i64 1)
  %24 = icmp ne i64 %23, 0
  br i1 %24, label %25, label %141

25:                                               ; preds = %17
  %26 = load ptr, ptr %4, align 8, !tbaa !3
  %27 = getelementptr inbounds nuw %struct.H5FA_dblock_cache_ud_t, ptr %8, i32 0, i32 0
  store ptr %26, ptr %27, align 8, !tbaa !57
  %28 = load i64, ptr %5, align 8, !tbaa !14
  %29 = getelementptr inbounds nuw %struct.H5FA_dblock_cache_ud_t, ptr %8, i32 0, i32 1
  store i64 %28, ptr %29, align 8, !tbaa !59
  %30 = load ptr, ptr %4, align 8, !tbaa !3
  %31 = getelementptr inbounds nuw %struct.H5FA_hdr_t, ptr %30, i32 0, i32 7
  %32 = load ptr, ptr %31, align 8, !tbaa !52
  %33 = load i64, ptr %5, align 8, !tbaa !14
  %34 = load i32, ptr %6, align 4, !tbaa !46
  %35 = call ptr @H5AC_protect(ptr noundef %32, ptr noundef @H5AC_FARRAY_DBLOCK, i64 noundef %33, ptr noundef %8, i32 noundef %34)
  store ptr %35, ptr %7, align 8, !tbaa !8
  %36 = icmp eq ptr null, %35
  br i1 %36, label %37, label %57

37:                                               ; preds = %25
  br label %38

38:                                               ; preds = %37
  br label %39

39:                                               ; preds = %38
  br label %40

40:                                               ; preds = %39
  %41 = load i64, ptr @H5E_FARRAY_g, align 8, !tbaa !14
  %42 = load i64, ptr @H5E_CANTPROTECT_g, align 8, !tbaa !14
  %43 = load i64, ptr %5, align 8, !tbaa !14
  %44 = call i32 (ptr, ptr, i32, i64, i64, ptr, ...) @H5E_printf_stack(ptr noundef @.str.2, ptr noundef @__func__.H5FA__dblock_protect, i32 noundef 282, i64 noundef %41, i64 noundef %42, ptr noundef @.str.14, i64 noundef %43)
  br label %45

45:                                               ; preds = %40
  br label %46

46:                                               ; preds = %45
  store i8 1, ptr %10, align 1, !tbaa !10
  %47 = load i8, ptr %10, align 1, !tbaa !10, !range !12, !noundef !13
  %48 = trunc i8 %47 to i1
  %49 = zext i1 %48 to i8
  store i8 %49, ptr %10, align 1, !tbaa !10
  br label %50

50:                                               ; preds = %46
  br label %51

51:                                               ; preds = %50
  br label %52

52:                                               ; preds = %51
  store ptr null, ptr %9, align 8, !tbaa !8
  br label %104

53:                                               ; No predecessors!
  br label %54

54:                                               ; preds = %53
  br label %55

55:                                               ; preds = %54
  br label %56

56:                                               ; preds = %55
  br label %57

57:                                               ; preds = %56, %25
  %58 = load ptr, ptr %4, align 8, !tbaa !3
  %59 = getelementptr inbounds nuw %struct.H5FA_hdr_t, ptr %58, i32 0, i32 14
  %60 = load ptr, ptr %59, align 8, !tbaa !55
  %61 = icmp ne ptr %60, null
  br i1 %61, label %62, label %102

62:                                               ; preds = %57
  %63 = load ptr, ptr %7, align 8, !tbaa !8
  %64 = getelementptr inbounds nuw %struct.H5FA_dblock_t, ptr %63, i32 0, i32 4
  %65 = load ptr, ptr %64, align 8, !tbaa !56
  %66 = icmp eq ptr null, %65
  br i1 %66, label %67, label %102

67:                                               ; preds = %62
  %68 = load ptr, ptr %4, align 8, !tbaa !3
  %69 = getelementptr inbounds nuw %struct.H5FA_hdr_t, ptr %68, i32 0, i32 14
  %70 = load ptr, ptr %69, align 8, !tbaa !55
  %71 = load ptr, ptr %4, align 8, !tbaa !3
  %72 = getelementptr inbounds nuw %struct.H5FA_hdr_t, ptr %71, i32 0, i32 7
  %73 = load ptr, ptr %72, align 8, !tbaa !52
  %74 = load ptr, ptr %7, align 8, !tbaa !8
  %75 = call i32 @H5AC_proxy_entry_add_child(ptr noundef %70, ptr noundef %73, ptr noundef %74)
  %76 = icmp slt i32 %75, 0
  br i1 %76, label %77, label %96

77:                                               ; preds = %67
  br label %78

78:                                               ; preds = %77
  br label %79

79:                                               ; preds = %78
  br label %80

80:                                               ; preds = %79
  %81 = load i64, ptr @H5E_FARRAY_g, align 8, !tbaa !14
  %82 = load i64, ptr @H5E_CANTSET_g, align 8, !tbaa !14
  %83 = call i32 (ptr, ptr, i32, i64, i64, ptr, ...) @H5E_printf_stack(ptr noundef @.str.2, ptr noundef @__func__.H5FA__dblock_protect, i32 noundef 289, i64 noundef %81, i64 noundef %82, ptr noundef @.str.11)
  br label %84

84:                                               ; preds = %80
  br label %85

85:                                               ; preds = %84
  store i8 1, ptr %10, align 1, !tbaa !10
  %86 = load i8, ptr %10, align 1, !tbaa !10, !range !12, !noundef !13
  %87 = trunc i8 %86 to i1
  %88 = zext i1 %87 to i8
  store i8 %88, ptr %10, align 1, !tbaa !10
  br label %89

89:                                               ; preds = %85
  br label %90

90:                                               ; preds = %89
  br label %91

91:                                               ; preds = %90
  store ptr null, ptr %9, align 8, !tbaa !8
  br label %104

92:                                               ; No predecessors!
  br label %93

93:                                               ; preds = %92
  br label %94

94:                                               ; preds = %93
  br label %95

95:                                               ; preds = %94
  br label %96

96:                                               ; preds = %95, %67
  %97 = load ptr, ptr %4, align 8, !tbaa !3
  %98 = getelementptr inbounds nuw %struct.H5FA_hdr_t, ptr %97, i32 0, i32 14
  %99 = load ptr, ptr %98, align 8, !tbaa !55
  %100 = load ptr, ptr %7, align 8, !tbaa !8
  %101 = getelementptr inbounds nuw %struct.H5FA_dblock_t, ptr %100, i32 0, i32 4
  store ptr %99, ptr %101, align 8, !tbaa !56
  br label %102

102:                                              ; preds = %96, %62, %57
  %103 = load ptr, ptr %7, align 8, !tbaa !8
  store ptr %103, ptr %9, align 8, !tbaa !8
  br label %104

104:                                              ; preds = %102, %91, %52
  %105 = load ptr, ptr %9, align 8, !tbaa !8
  %106 = icmp ne ptr %105, null
  br i1 %106, label %140, label %107

107:                                              ; preds = %104
  %108 = load ptr, ptr %7, align 8, !tbaa !8
  %109 = icmp ne ptr %108, null
  br i1 %109, label %110, label %139

110:                                              ; preds = %107
  %111 = load ptr, ptr %4, align 8, !tbaa !3
  %112 = getelementptr inbounds nuw %struct.H5FA_hdr_t, ptr %111, i32 0, i32 7
  %113 = load ptr, ptr %112, align 8, !tbaa !52
  %114 = load ptr, ptr %7, align 8, !tbaa !8
  %115 = getelementptr inbounds nuw %struct.H5FA_dblock_t, ptr %114, i32 0, i32 5
  %116 = load i64, ptr %115, align 8, !tbaa !53
  %117 = load ptr, ptr %7, align 8, !tbaa !8
  %118 = call i32 @H5AC_unprotect(ptr noundef %113, ptr noundef @H5AC_FARRAY_DBLOCK, i64 noundef %116, ptr noundef %117, i32 noundef 0)
  %119 = icmp slt i32 %118, 0
  br i1 %119, label %120, label %139

120:                                              ; preds = %110
  br label %121

121:                                              ; preds = %120
  br label %122

122:                                              ; preds = %121
  br label %123

123:                                              ; preds = %122
  %124 = load i64, ptr @H5E_FARRAY_g, align 8, !tbaa !14
  %125 = load i64, ptr @H5E_CANTUNPROTECT_g, align 8, !tbaa !14
  %126 = load ptr, ptr %7, align 8, !tbaa !8
  %127 = getelementptr inbounds nuw %struct.H5FA_dblock_t, ptr %126, i32 0, i32 5
  %128 = load i64, ptr %127, align 8, !tbaa !53
  %129 = call i32 (ptr, ptr, i32, i64, i64, ptr, ...) @H5E_printf_stack(ptr noundef @.str.2, ptr noundef @__func__.H5FA__dblock_protect, i32 noundef 304, i64 noundef %124, i64 noundef %125, ptr noundef @.str.15, i64 noundef %128)
  br label %130

130:                                              ; preds = %123
  br label %131

131:                                              ; preds = %130
  store i8 1, ptr %10, align 1, !tbaa !10
  %132 = load i8, ptr %10, align 1, !tbaa !10, !range !12, !noundef !13
  %133 = trunc i8 %132 to i1
  %134 = zext i1 %133 to i8
  store i8 %134, ptr %10, align 1, !tbaa !10
  br label %135

135:                                              ; preds = %131
  br label %136

136:                                              ; preds = %135
  store ptr null, ptr %9, align 8, !tbaa !8
  br label %137

137:                                              ; preds = %136
  br label %138

138:                                              ; preds = %137
  br label %139

139:                                              ; preds = %138, %110, %107
  br label %140

140:                                              ; preds = %139, %104
  br label %141

141:                                              ; preds = %140, %17
  %142 = load ptr, ptr %9, align 8, !tbaa !8
  call void @llvm.lifetime.end.p0(i64 1, ptr %10) #4
  call void @llvm.lifetime.end.p0(i64 8, ptr %9) #4
  call void @llvm.lifetime.end.p0(i64 16, ptr %8) #4
  call void @llvm.lifetime.end.p0(i64 8, ptr %7) #4
  ret ptr %142
}