; Function Attrs: nounwind uwtable
define ptr @H5FA__dblock_protect(ptr noundef %0, i64 noundef %1, i32 noundef %2) local_unnamed_addr #0 {
  %4 = alloca %struct.H5FA_dblock_cache_ud_t, align 8
  call void @llvm.lifetime.start.p0(i64 16, ptr nonnull %4) #3
  %5 = load i8, ptr @H5FA_init_g, align 1, !tbaa !3, !range !7, !noundef !8
  %6 = trunc nuw i8 %5 to i1
  %7 = load i8, ptr @H5_libterm_g, align 1, !range !7
  %8 = trunc nuw i8 %7 to i1
  %9 = xor i1 %8, true
  %10 = select i1 %6, i1 true, i1 %9
  br i1 %10, label %11, label %.thread, !prof !9

11:                                               ; preds = %3
  store ptr %0, ptr %4, align 8, !tbaa !52
  %12 = getelementptr inbounds nuw i8, ptr %4, i64 8
  store i64 %1, ptr %12, align 8, !tbaa !54
  %13 = getelementptr inbounds nuw i8, ptr %0, i64 328
  %14 = load ptr, ptr %13, align 8, !tbaa !47
  %15 = call ptr @H5AC_protect(ptr noundef %14, ptr noundef nonnull @H5AC_FARRAY_DBLOCK, i64 noundef %1, ptr noundef nonnull %4, i32 noundef %2) #3
  %16 = icmp eq ptr %15, null
  br i1 %16, label %17, label %21

17:                                               ; preds = %11
  %18 = load i64, ptr @H5E_FARRAY_g, align 8, !tbaa !10
  %19 = load i64, ptr @H5E_CANTPROTECT_g, align 8, !tbaa !10
  %20 = call i32 (ptr, ptr, i32, i64, i64, ptr, ...) @H5E_printf_stack(ptr noundef nonnull @.str.2, ptr noundef nonnull @__func__.H5FA__dblock_protect, i32 noundef 282, i64 noundef %18, i64 noundef %19, ptr noundef nonnull @.str.14, i64 noundef %1) #3
  br label %.thread

21:                                               ; preds = %11
  %22 = getelementptr inbounds nuw i8, ptr %0, i64 384
  %23 = load ptr, ptr %22, align 8, !tbaa !50
  %.not = icmp eq ptr %23, null
  br i1 %.not, label %.thread, label %24

24:                                               ; preds = %21
  %25 = getelementptr inbounds nuw i8, ptr %15, i64 272
  %26 = load ptr, ptr %25, align 8, !tbaa !51
  %27 = icmp eq ptr %26, null
  br i1 %27, label %28, label %.thread

28:                                               ; preds = %24
  %29 = load ptr, ptr %13, align 8, !tbaa !47
  %30 = call i32 @H5AC_proxy_entry_add_child(ptr noundef nonnull %23, ptr noundef %29, ptr noundef nonnull %15) #3
  %31 = icmp slt i32 %30, 0
  br i1 %31, label %34, label %32

32:                                               ; preds = %28
  %33 = load ptr, ptr %22, align 8, !tbaa !50
  store ptr %33, ptr %25, align 8, !tbaa !51
  br label %.thread

34:                                               ; preds = %28
  %35 = load i64, ptr @H5E_FARRAY_g, align 8, !tbaa !10
  %36 = load i64, ptr @H5E_CANTSET_g, align 8, !tbaa !10
  %37 = call i32 (ptr, ptr, i32, i64, i64, ptr, ...) @H5E_printf_stack(ptr noundef nonnull @.str.2, ptr noundef nonnull @__func__.H5FA__dblock_protect, i32 noundef 289, i64 noundef %35, i64 noundef %36, ptr noundef nonnull @.str.11) #3
  %38 = load ptr, ptr %13, align 8, !tbaa !47
  %39 = getelementptr inbounds nuw i8, ptr %15, i64 280
  %40 = load i64, ptr %39, align 8, !tbaa !48
  %41 = call i32 @H5AC_unprotect(ptr noundef %38, ptr noundef nonnull @H5AC_FARRAY_DBLOCK, i64 noundef %40, ptr noundef nonnull %15, i32 noundef 0) #3
  %42 = icmp slt i32 %41, 0
  br i1 %42, label %43, label %.thread

43:                                               ; preds = %34
  %44 = load i64, ptr @H5E_FARRAY_g, align 8, !tbaa !10
  %45 = load i64, ptr @H5E_CANTUNPROTECT_g, align 8, !tbaa !10
  %46 = load i64, ptr %39, align 8, !tbaa !48
  %47 = call i32 (ptr, ptr, i32, i64, i64, ptr, ...) @H5E_printf_stack(ptr noundef nonnull @.str.2, ptr noundef nonnull @__func__.H5FA__dblock_protect, i32 noundef 304, i64 noundef %44, i64 noundef %45, ptr noundef nonnull @.str.15, i64 noundef %46) #3
  br label %.thread

.thread:                                          ; preds = %17, %21, %24, %32, %43, %34, %3
  %.0 = phi ptr [ null, %43 ], [ null, %34 ], [ null, %3 ], [ %15, %21 ], [ %15, %24 ], [ %15, %32 ], [ null, %17 ]
  call void @llvm.lifetime.end.p0(i64 16, ptr nonnull %4) #3
  ret ptr %.0
}